; Function Attrs: mustprogress nounwind uwtable
define void @_ZN5boost3log11v2_mt_posix5sinks14syslog_backendD2Ev(ptr nocapture noundef nonnull readonly align 8 dereferenceable(8) %0) unnamed_addr #9 align 2 {
  %2 = load ptr, ptr %0, align 8, !tbaa !48
  %3 = icmp eq ptr %2, null
  br i1 %3, label %8, label %4

4:                                                ; preds = %1
  %5 = load ptr, ptr %2, align 8, !tbaa !37
  %6 = getelementptr inbounds i8, ptr %5, i64 8
  %7 = load ptr, ptr %6, align 8
  tail call void %7(ptr noundef nonnull align 8 dereferenceable(20) %2) #33
  br label %8

8:                                                ; preds = %4, %1
  ret void
}